target datalayout = "e-m:e-p270:32:32-p271:32:32-p272:64:64-i64:64-i128:128-f80:128-n8:16:32:64-S128"
target triple = "x86_64-pc-linux-gnu"

%struct.grpc_ares_ev_driver = type { ptr, ptr, %struct.gpr_refcount, ptr, i8, ptr, %"class.std::unique_ptr", i32, %struct.grpc_timer, %struct.grpc_closure, %struct.grpc_timer, %struct.grpc_closure }
%struct.gpr_refcount = type { i64 }
%"class.std::unique_ptr" = type { %"struct.std::__uniq_ptr_data" }
%"struct.std::__uniq_ptr_data" = type { %"class.std::__uniq_ptr_impl" }
%"class.std::__uniq_ptr_impl" = type { %"class.std::tuple" }
%"class.std::tuple" = type { %"struct.std::_Tuple_impl" }
%"struct.std::_Tuple_impl" = type { %"struct.std::_Head_base.1" }
%"struct.std::_Head_base.1" = type { ptr }
%struct.grpc_timer = type { i64, i32, i8, ptr, ptr, ptr, %union.anon }
%union.anon = type { %"struct.grpc_event_engine::experimental::EventEngine::TaskHandle" }
%"struct.grpc_event_engine::experimental::EventEngine::TaskHandle" = type { [2 x i64] }
%struct.grpc_closure = type { %union.anon.2, ptr, ptr, %union.anon.3 }
%union.anon.2 = type { ptr }
%union.anon.3 = type { i64 }
%struct.fd_node = type <{ ptr, %struct.grpc_closure, %struct.grpc_closure, ptr, ptr, i8, i8, i8, [5 x i8] }>

@.str = private unnamed_addr constant [29 x i8] c"grpc_ares_ev_driver_shutdown\00", align 1

; Function Attrs: mustprogress uwtable
define void @_Z35grpc_ares_ev_driver_shutdown_lockedP19grpc_ares_ev_driver(ptr noundef %0) #4 {
  %2 = alloca ptr, align 8
  %3 = alloca ptr, align 8
  store ptr %0, ptr %2, align 8, !tbaa !3
  %4 = load ptr, ptr %2, align 8, !tbaa !3
  %5 = getelementptr inbounds nuw %struct.grpc_ares_ev_driver, ptr %4, i32 0, i32 4
  store i8 1, ptr %5, align 8, !tbaa !8
  call void @llvm.lifetime.start.p0(i64 8, ptr %3) #3
  %6 = load ptr, ptr %2, align 8, !tbaa !3
  %7 = getelementptr inbounds nuw %struct.grpc_ares_ev_driver, ptr %6, i32 0, i32 3
  %8 = load ptr, ptr %7, align 8, !tbaa !36
  store ptr %8, ptr %3, align 8, !tbaa !37
  br label %9

9:                                                ; preds = %12, %1
  %10 = load ptr, ptr %3, align 8, !tbaa !37
  %11 = icmp ne ptr %10, null
  br i1 %11, label %12, label %17

12:                                               ; preds = %9
  %13 = load ptr, ptr %3, align 8, !tbaa !37
  call void @_ZL23fd_node_shutdown_lockedP7fd_nodePKc(ptr noundef %13, ptr noundef @.str)
  %14 = load ptr, ptr %3, align 8, !tbaa !37
  %15 = getelementptr inbounds nuw %struct.fd_node, ptr %14, i32 0, i32 3
  %16 = load ptr, ptr %15, align 8, !tbaa !38
  store ptr %16, ptr %3, align 8, !tbaa !37
  br label %9, !llvm.loop !41

17:                                               ; preds = %9
  call void @llvm.lifetime.end.p0(i64 8, ptr %3) #3
  ret void
}