; Function Attrs: mustprogress uwtable
define void @_Z35grpc_ares_ev_driver_shutdown_lockedP19grpc_ares_ev_driver(ptr noundef captures(none) initializes((32, 33)) %0) local_unnamed_addr #3 {
  %2 = getelementptr inbounds nuw i8, ptr %0, i64 32
  store i8 1, ptr %2, align 8, !tbaa !3
  %3 = getelementptr inbounds nuw i8, ptr %0, i64 24
  %.05 = load ptr, ptr %3, align 8, !tbaa !31
  %.not6 = icmp eq ptr %.05, null
  br i1 %.not6, label %._crit_edge, label %.lr.ph

.lr.ph:                                           ; preds = %1, %.lr.ph
  %.07 = phi ptr [ %.0, %.lr.ph ], [ %.05, %1 ]
  tail call fastcc void @_ZL23fd_node_shutdown_lockedP7fd_nodePKc(ptr noundef %.07, ptr noundef nonnull @.str)
  %4 = getelementptr inbounds nuw i8, ptr %.07, i64 72
  %.0 = load ptr, ptr %4, align 8, !tbaa !31
  %.not = icmp eq ptr %.0, null
  br i1 %.not, label %._crit_edge, label %.lr.ph, !llvm.loop !42

._crit_edge:                                      ; preds = %.lr.ph, %1
  ret void
}